target datalayout = "e-m:e-p270:32:32-p271:32:32-p272:64:64-i64:64-i128:128-f80:128-n8:16:32:64-S128"
target triple = "x86_64-pc-linux-gnu"

@__const._Z15appendArrowHeadP11duDebugDrawPKfS2_fj.ay = private unnamed_addr constant [3 x float] [float 0.000000e+00, float 1.000000e+00, float 0.000000e+00], align 4

; Function Attrs: mustprogress nounwind uwtable
define linkonce_odr void @_Z6vcrossPfPKfS1_(ptr noundef %0, ptr noundef %1, ptr noundef %2) #0 comdat {
  %4 = alloca ptr, align 8
  %5 = alloca ptr, align 8
  %6 = alloca ptr, align 8
  store ptr %0, ptr %4, align 8
  store ptr %1, ptr %5, align 8
  store ptr %2, ptr %6, align 8
  %7 = load ptr, ptr %5, align 8
  %8 = getelementptr inbounds float, ptr %7, i64 1
  %9 = load float, ptr %8, align 4
  %10 = load ptr, ptr %6, align 8
  %11 = getelementptr inbounds float, ptr %10, i64 2
  %12 = load float, ptr %11, align 4
  %13 = load ptr, ptr %5, align 8
  %14 = getelementptr inbounds float, ptr %13, i64 2
  %15 = load float, ptr %14, align 4
  %16 = load ptr, ptr %6, align 8
  %17 = getelementptr inbounds float, ptr %16, i64 1
  %18 = load float, ptr %17, align 4
  %19 = fmul float %15, %18
  %20 = fneg float %19
  %21 = call float @llvm.fmuladd.f32(float %9, float %12, float %20)
  %22 = load ptr, ptr %4, align 8
  %23 = getelementptr inbounds float, ptr %22, i64 0
  store float %21, ptr %23, align 4
  %24 = load ptr, ptr %5, align 8
  %25 = getelementptr inbounds float, ptr %24, i64 2
  %26 = load float, ptr %25, align 4
  %27 = load ptr, ptr %6, align 8
  %28 = getelementptr inbounds float, ptr %27, i64 0
  %29 = load float, ptr %28, align 4
  %30 = load ptr, ptr %5, align 8
  %31 = getelementptr inbounds float, ptr %30, i64 0
  %32 = load float, ptr %31, align 4
  %33 = load ptr, ptr %6, align 8
  %34 = getelementptr inbounds float, ptr %33, i64 2
  %35 = load float, ptr %34, align 4
  %36 = fmul float %32, %35
  %37 = fneg float %36
  %38 = call float @llvm.fmuladd.f32(float %26, float %29, float %37)
  %39 = load ptr, ptr %4, align 8
  %40 = getelementptr inbounds float, ptr %39, i64 1
  store float %38, ptr %40, align 4
  %41 = load ptr, ptr %5, align 8
  %42 = getelementptr inbounds float, ptr %41, i64 0
  %43 = load float, ptr %42, align 4
  %44 = load ptr, ptr %6, align 8
  %45 = getelementptr inbounds float, ptr %44, i64 1
  %46 = load float, ptr %45, align 4
  %47 = load ptr, ptr %5, align 8
  %48 = getelementptr inbounds float, ptr %47, i64 1
  %49 = load float, ptr %48, align 4
  %50 = load ptr, ptr %6, align 8
  %51 = getelementptr inbounds float, ptr %50, i64 0
  %52 = load float, ptr %51, align 4
  %53 = fmul float %49, %52
  %54 = fneg float %53
  %55 = call float @llvm.fmuladd.f32(float %43, float %46, float %54)
  %56 = load ptr, ptr %4, align 8
  %57 = getelementptr inbounds float, ptr %56, i64 2
  store float %55, ptr %57, align 4
  ret void
}

; Function Attrs: mustprogress nounwind uwtable
define linkonce_odr void @_Z10vnormalizePf(ptr noundef %0) #0 comdat {
  %2 = alloca ptr, align 8
  %3 = alloca float, align 4
  store ptr %0, ptr %2, align 8
  %4 = load ptr, ptr %2, align 8
  %5 = getelementptr inbounds float, ptr %4, i64 0
  %6 = load float, ptr %5, align 4
  %7 = load ptr, ptr %2, align 8
  %8 = getelementptr inbounds float, ptr %7, i64 0
  %9 = load float, ptr %8, align 4
  %10 = load ptr, ptr %2, align 8
  %11 = getelementptr inbounds float, ptr %10, i64 1
  %12 = load float, ptr %11, align 4
  %13 = load ptr, ptr %2, align 8
  %14 = getelementptr inbounds float, ptr %13, i64 1
  %15 = load float, ptr %14, align 4
  %16 = fmul float %12, %15
  %17 = call float @llvm.fmuladd.f32(float %6, float %9, float %16)
  %18 = load ptr, ptr %2, align 8
  %19 = getelementptr inbounds float, ptr %18, i64 2
  %20 = load float, ptr %19, align 4
  %21 = load ptr, ptr %2, align 8
  %22 = getelementptr inbounds float, ptr %21, i64 2
  %23 = load float, ptr %22, align 4
  %24 = call float @llvm.fmuladd.f32(float %20, float %23, float %17)
  %25 = call float @sqrtf(float noundef %24) #9
  %26 = fdiv float 1.000000e+00, %25
  store float %26, ptr %3, align 4
  %27 = load float, ptr %3, align 4
  %28 = load ptr, ptr %2, align 8
  %29 = getelementptr inbounds float, ptr %28, i64 0
  %30 = load float, ptr %29, align 4
  %31 = fmul float %30, %27
  store float %31, ptr %29, align 4
  %32 = load float, ptr %3, align 4
  %33 = load ptr, ptr %2, align 8
  %34 = getelementptr inbounds float, ptr %33, i64 1
  %35 = load float, ptr %34, align 4
  %36 = fmul float %35, %32
  store float %36, ptr %34, align 4
  %37 = load float, ptr %3, align 4
  %38 = load ptr, ptr %2, align 8
  %39 = getelementptr inbounds float, ptr %38, i64 2
  %40 = load float, ptr %39, align 4
  %41 = fmul float %40, %37
  store float %41, ptr %39, align 4
  ret void
}

; Function Attrs: mustprogress nounwind uwtable
define linkonce_odr void @_Z4vsubPfPKfS1_(ptr noundef %0, ptr noundef %1, ptr noundef %2) #0 comdat {
  %4 = alloca ptr, align 8
  %5 = alloca ptr, align 8
  %6 = alloca ptr, align 8
  store ptr %0, ptr %4, align 8
  store ptr %1, ptr %5, align 8
  store ptr %2, ptr %6, align 8
  %7 = load ptr, ptr %5, align 8
  %8 = getelementptr inbounds float, ptr %7, i64 0
  %9 = load float, ptr %8, align 4
  %10 = load ptr, ptr %6, align 8
  %11 = getelementptr inbounds float, ptr %10, i64 0
  %12 = load float, ptr %11, align 4
  %13 = fsub float %9, %12
  %14 = load ptr, ptr %4, align 8
  %15 = getelementptr inbounds float, ptr %14, i64 0
  store float %13, ptr %15, align 4
  %16 = load ptr, ptr %5, align 8
  %17 = getelementptr inbounds float, ptr %16, i64 1
  %18 = load float, ptr %17, align 4
  %19 = load ptr, ptr %6, align 8
  %20 = getelementptr inbounds float, ptr %19, i64 1
  %21 = load float, ptr %20, align 4
  %22 = fsub float %18, %21
  %23 = load ptr, ptr %4, align 8
  %24 = getelementptr inbounds float, ptr %23, i64 1
  store float %22, ptr %24, align 4
  %25 = load ptr, ptr %5, align 8
  %26 = getelementptr inbounds float, ptr %25, i64 2
  %27 = load float, ptr %26, align 4
  %28 = load ptr, ptr %6, align 8
  %29 = getelementptr inbounds float, ptr %28, i64 2
  %30 = load float, ptr %29, align 4
  %31 = fsub float %27, %30
  %32 = load ptr, ptr %4, align 8
  %33 = getelementptr inbounds float, ptr %32, i64 2
  store float %31, ptr %33, align 4
  ret void
}

; Function Attrs: mustprogress nounwind uwtable
define linkonce_odr noundef float @_Z8vdistSqrPKfS0_(ptr noundef %0, ptr noundef %1) #0 comdat {
  %3 = alloca ptr, align 8
  %4 = alloca ptr, align 8
  %5 = alloca float, align 4
  %6 = alloca float, align 4
  %7 = alloca float, align 4
  store ptr %0, ptr %3, align 8
  store ptr %1, ptr %4, align 8
  %8 = load ptr, ptr %3, align 8
  %9 = getelementptr inbounds float, ptr %8, i64 0
  %10 = load float, ptr %9, align 4
  %11 = load ptr, ptr %4, align 8
  %12 = getelementptr inbounds float, ptr %11, i64 0
  %13 = load float, ptr %12, align 4
  %14 = fsub float %10, %13
  store float %14, ptr %5, align 4
  %15 = load ptr, ptr %3, align 8
  %16 = getelementptr inbounds float, ptr %15, i64 1
  %17 = load float, ptr %16, align 4
  %18 = load ptr, ptr %4, align 8
  %19 = getelementptr inbounds float, ptr %18, i64 1
  %20 = load float, ptr %19, align 4
  %21 = fsub float %17, %20
  store float %21, ptr %6, align 4
  %22 = load ptr, ptr %3, align 8
  %23 = getelementptr inbounds float, ptr %22, i64 2
  %24 = load float, ptr %23, align 4
  %25 = load ptr, ptr %4, align 8
  %26 = getelementptr inbounds float, ptr %25, i64 2
  %27 = load float, ptr %26, align 4
  %28 = fsub float %24, %27
  store float %28, ptr %7, align 4
  %29 = load float, ptr %5, align 4
  %30 = load float, ptr %5, align 4
  %31 = load float, ptr %6, align 4
  %32 = load float, ptr %6, align 4
  %33 = fmul float %31, %32
  %34 = call float @llvm.fmuladd.f32(float %29, float %30, float %33)
  %35 = load float, ptr %7, align 4
  %36 = load float, ptr %7, align 4
  %37 = call float @llvm.fmuladd.f32(float %35, float %36, float %34)
  ret float %37
}

; Function Attrs: mustprogress uwtable
define void @_Z15appendArrowHeadP11duDebugDrawPKfS2_fj(ptr noundef %0, ptr noundef %1, ptr noundef %2, float noundef %3, i32 noundef %4) #2 {
  %6 = alloca ptr, align 8
  %7 = alloca ptr, align 8
  %8 = alloca ptr, align 8
  %9 = alloca float, align 4
  %10 = alloca i32, align 4
  %11 = alloca float, align 4
  %12 = alloca [3 x float], align 4
  %13 = alloca [3 x float], align 4
  %14 = alloca [3 x float], align 4
  store ptr %0, ptr %6, align 8
  store ptr %1, ptr %7, align 8
  store ptr %2, ptr %8, align 8
  store float %3, ptr %9, align 4
  store i32 %4, ptr %10, align 4
  store float 0x3F50624DE0000000, ptr %11, align 4
  %15 = load ptr, ptr %6, align 8
  %16 = icmp ne ptr %15, null
  br i1 %16, label %18, label %17

17:                                               ; preds = %5
  br label %136

18:                                               ; preds = %5
  %19 = load ptr, ptr %7, align 8
  %20 = load ptr, ptr %8, align 8
  %21 = call noundef float @_Z8vdistSqrPKfS0_(ptr noundef %19, ptr noundef %20)
  %22 = fcmp olt float %21, 0x3EB0C6F7C0000000
  br i1 %22, label %23, label %24

23:                                               ; preds = %18
  br label %136

24:                                               ; preds = %18
  call void @llvm.memcpy.p0.p0.i64(ptr align 4 %13, ptr align 4 @__const._Z15appendArrowHeadP11duDebugDrawPKfS2_fj.ay, i64 12, i1 false)
  %25 = getelementptr inbounds [3 x float], ptr %14, i64 0, i64 0
  %26 = load ptr, ptr %8, align 8
  %27 = load ptr, ptr %7, align 8
  call void @_Z4vsubPfPKfS1_(ptr noundef %25, ptr noundef %26, ptr noundef %27)
  %28 = getelementptr inbounds [3 x float], ptr %14, i64 0, i64 0
  call void @_Z10vnormalizePf(ptr noundef %28)
  %29 = getelementptr inbounds [3 x float], ptr %12, i64 0, i64 0
  %30 = getelementptr inbounds [3 x float], ptr %13, i64 0, i64 0
  %31 = getelementptr inbounds [3 x float], ptr %14, i64 0, i64 0
  call void @_Z6vcrossPfPKfS1_(ptr noundef %29, ptr noundef %30, ptr noundef %31)
  %32 = getelementptr inbounds [3 x float], ptr %13, i64 0, i64 0
  %33 = getelementptr inbounds [3 x float], ptr %14, i64 0, i64 0
  %34 = getelementptr inbounds [3 x float], ptr %12, i64 0, i64 0
  call void @_Z6vcrossPfPKfS1_(ptr noundef %32, ptr noundef %33, ptr noundef %34)
  %35 = getelementptr inbounds [3 x float], ptr %13, i64 0, i64 0
  call void @_Z10vnormalizePf(ptr noundef %35)
  %36 = load ptr, ptr %6, align 8
  %37 = load ptr, ptr %7, align 8
  %38 = load i32, ptr %10, align 4
  %39 = load ptr, ptr %36, align 8
  %40 = getelementptr inbounds ptr, ptr %39, i64 5
  %41 = load ptr, ptr %40, align 8
  call void %41(ptr noundef nonnull align 8 dereferenceable(8) %36, ptr noundef %37, i32 noundef %38)
  %42 = load ptr, ptr %6, align 8
  %43 = load ptr, ptr %7, align 8
  %44 = getelementptr inbounds float, ptr %43, i64 0
  %45 = load float, ptr %44, align 4
  %46 = getelementptr inbounds [3 x float], ptr %14, i64 0, i64 0
  %47 = load float, ptr %46, align 4
  %48 = load float, ptr %9, align 4
  %49 = call float @llvm.fmuladd.f32(float %47, float %48, float %45)
  %50 = getelementptr inbounds [3 x float], ptr %12, i64 0, i64 0
  %51 = load float, ptr %50, align 4
  %52 = load float, ptr %9, align 4
  %53 = fmul float %51, %52
  %54 = fdiv float %53, 3.000000e+00
  %55 = fadd float %49, %54
  %56 = load ptr, ptr %7, align 8
  %57 = getelementptr inbounds float, ptr %56, i64 1
  %58 = load float, ptr %57, align 4
  %59 = getelementptr inbounds [3 x float], ptr %14, i64 0, i64 1
  %60 = load float, ptr %59, align 4
  %61 = load float, ptr %9, align 4
  %62 = call float @llvm.fmuladd.f32(float %60, float %61, float %58)
  %63 = getelementptr inbounds [3 x float], ptr %12, i64 0, i64 1
  %64 = load float, ptr %63, align 4
  %65 = load float, ptr %9, align 4
  %66 = fmul float %64, %65
  %67 = fdiv float %66, 3.000000e+00
  %68 = fadd float %62, %67
  %69 = load ptr, ptr %7, align 8
  %70 = getelementptr inbounds float, ptr %69, i64 2
  %71 = load float, ptr %70, align 4
  %72 = getelementptr inbounds [3 x float], ptr %14, i64 0, i64 2
  %73 = load float, ptr %72, align 4
  %74 = load float, ptr %9, align 4
  %75 = call float @llvm.fmuladd.f32(float %73, float %74, float %71)
  %76 = getelementptr inbounds [3 x float], ptr %12, i64 0, i64 2
  %77 = load float, ptr %76, align 4
  %78 = load float, ptr %9, align 4
  %79 = fmul float %77, %78
  %80 = fdiv float %79, 3.000000e+00
  %81 = fadd float %75, %80
  %82 = load i32, ptr %10, align 4
  %83 = load ptr, ptr %42, align 8
  %84 = getelementptr inbounds ptr, ptr %83, i64 6
  %85 = load ptr, ptr %84, align 8
  call void %85(ptr noundef nonnull align 8 dereferenceable(8) %42, float noundef %55, float noundef %68, float noundef %81, i32 noundef %82)
  %86 = load ptr, ptr %6, align 8
  %87 = load ptr, ptr %7, align 8
  %88 = load i32, ptr %10, align 4
  %89 = load ptr, ptr %86, align 8
  %90 = getelementptr inbounds ptr, ptr %89, i64 5
  %91 = load ptr, ptr %90, align 8
  call void %91(ptr noundef nonnull align 8 dereferenceable(8) %86, ptr noundef %87, i32 noundef %88)
  %92 = load ptr, ptr %6, align 8
  %93 = load ptr, ptr %7, align 8
  %94 = getelementptr inbounds float, ptr %93, i64 0
  %95 = load float, ptr %94, align 4
  %96 = getelementptr inbounds [3 x float], ptr %14, i64 0, i64 0
  %97 = load float, ptr %96, align 4
  %98 = load float, ptr %9, align 4
  %99 = call float @llvm.fmuladd.f32(float %97, float %98, float %95)
  %100 = getelementptr inbounds [3 x float], ptr %12, i64 0, i64 0
  %101 = load float, ptr %100, align 4
  %102 = load float, ptr %9, align 4
  %103 = fmul float %101, %102
  %104 = fdiv float %103, 3.000000e+00
  %105 = fsub float %99, %104
  %106 = load ptr, ptr %7, align 8
  %107 = getelementptr inbounds float, ptr %106, i64 1
  %108 = load float, ptr %107, align 4
  %109 = getelementptr inbounds [3 x float], ptr %14, i64 0, i64 1
  %110 = load float, ptr %109, align 4
  %111 = load float, ptr %9, align 4
  %112 = call float @llvm.fmuladd.f32(float %110, float %111, float %108)
  %113 = getelementptr inbounds [3 x float], ptr %12, i64 0, i64 1
  %114 = load float, ptr %113, align 4
  %115 = load float, ptr %9, align 4
  %116 = fmul float %114, %115
  %117 = fdiv float %116, 3.000000e+00
  %118 = fsub float %112, %117
  %119 = load ptr, ptr %7, align 8
  %120 = getelementptr inbounds float, ptr %119, i64 2
  %121 = load float, ptr %120, align 4
  %122 = getelementptr inbounds [3 x float], ptr %14, i64 0, i64 2
  %123 = load float, ptr %122, align 4
  %124 = load float, ptr %9, align 4
  %125 = call float @llvm.fmuladd.f32(float %123, float %124, float %121)
  %126 = getelementptr inbounds [3 x float], ptr %12, i64 0, i64 2
  %127 = load float, ptr %126, align 4
  %128 = load float, ptr %9, align 4
  %129 = fmul float %127, %128
  %130 = fdiv float %129, 3.000000e+00
  %131 = fsub float %125, %130
  %132 = load i32, ptr %10, align 4
  %133 = load ptr, ptr %92, align 8
  %134 = getelementptr inbounds ptr, ptr %133, i64 6
  %135 = load ptr, ptr %134, align 8
  call void %135(ptr noundef nonnull align 8 dereferenceable(8) %92, float noundef %105, float noundef %118, float noundef %131, i32 noundef %132)
  br label %136

136:                                              ; preds = %24, %23, %17
  ret void
}