; Function Attrs: mustprogress uwtable
define void @_Z15appendArrowHeadP11duDebugDrawPKfS2_fj(ptr noundef %0, ptr noundef %1, ptr nocapture noundef readonly %2, float noundef %3, i32 noundef %4) local_unnamed_addr #4 {
  %.not = icmp eq ptr %0, null
  br i1 %.not, label %80, label %6

6:                                                ; preds = %5
  %7 = load float, ptr %1, align 4
  %8 = load float, ptr %2, align 4
  %9 = fsub float %7, %8
  %10 = getelementptr inbounds i8, ptr %1, i64 4
  %11 = getelementptr inbounds i8, ptr %2, i64 4
  %12 = load <2 x float>, ptr %10, align 4
  %13 = load <2 x float>, ptr %11, align 4
  %14 = fsub <2 x float> %12, %13
  %15 = fsub <2 x float> %12, %13
  %16 = extractelement <2 x float> %15, i64 1
  %17 = fmul <2 x float> %14, %14
  %18 = extractelement <2 x float> %17, i64 0
  %19 = tail call float @llvm.fmuladd.f32(float %9, float %9, float %18)
  %20 = tail call noundef float @llvm.fmuladd.f32(float %16, float %16, float %19)
  %21 = fcmp olt float %20, 0x3EB0C6F7C0000000
  br i1 %21, label %80, label %22

22:                                               ; preds = %6
  %23 = getelementptr inbounds i8, ptr %1, i64 8
  %24 = fsub float %8, %7
  %25 = fsub <2 x float> %13, %12
  %26 = fmul <2 x float> %25, %25
  %27 = extractelement <2 x float> %26, i64 0
  %28 = tail call float @llvm.fmuladd.f32(float %24, float %24, float %27)
  %29 = extractelement <2 x float> %25, i64 1
  %30 = tail call float @llvm.fmuladd.f32(float %29, float %29, float %28)
  %sqrt.i = tail call float @llvm.sqrt.f32(float %30)
  %31 = fdiv float 1.000000e+00, %sqrt.i
  %32 = fmul float %24, %31
  %33 = insertelement <2 x float> poison, float %31, i64 0
  %34 = shufflevector <2 x float> %33, <2 x float> poison, <2 x i32> zeroinitializer
  %35 = fmul <2 x float> %25, %34
  %36 = extractelement <2 x float> %35, i64 0
  %37 = fmul float %36, 0.000000e+00
  %38 = extractelement <2 x float> %35, i64 1
  %39 = fsub float %38, %37
  %40 = fmul float %38, -0.000000e+00
  %41 = tail call float @llvm.fmuladd.f32(float %32, float 0.000000e+00, float %40)
  %42 = fneg float %32
  %43 = tail call float @llvm.fmuladd.f32(float %36, float 0.000000e+00, float %42)
  %44 = load ptr, ptr %0, align 8
  %45 = getelementptr inbounds i8, ptr %44, i64 40
  %46 = load ptr, ptr %45, align 8
  tail call void %46(ptr noundef nonnull align 8 dereferenceable(8) %0, ptr noundef nonnull %1, i32 noundef %4)
  %47 = load float, ptr %1, align 4
  %48 = tail call float @llvm.fmuladd.f32(float %32, float %3, float %47)
  %49 = fmul float %39, %3
  %50 = fdiv float %49, 3.000000e+00
  %51 = fadd float %50, %48
  %52 = load float, ptr %10, align 4
  %53 = tail call float @llvm.fmuladd.f32(float %36, float %3, float %52)
  %54 = fmul float %41, %3
  %55 = fdiv float %54, 3.000000e+00
  %56 = fadd float %55, %53
  %57 = load float, ptr %23, align 4
  %58 = tail call float @llvm.fmuladd.f32(float %38, float %3, float %57)
  %59 = fmul float %43, %3
  %60 = fdiv float %59, 3.000000e+00
  %61 = fadd float %60, %58
  %62 = load ptr, ptr %0, align 8
  %63 = getelementptr inbounds i8, ptr %62, i64 48
  %64 = load ptr, ptr %63, align 8
  tail call void %64(ptr noundef nonnull align 8 dereferenceable(8) %0, float noundef %51, float noundef %56, float noundef %61, i32 noundef %4)
  %65 = load ptr, ptr %0, align 8
  %66 = getelementptr inbounds i8, ptr %65, i64 40
  %67 = load ptr, ptr %66, align 8
  tail call void %67(ptr noundef nonnull align 8 dereferenceable(8) %0, ptr noundef nonnull %1, i32 noundef %4)
  %68 = load float, ptr %1, align 4
  %69 = tail call float @llvm.fmuladd.f32(float %32, float %3, float %68)
  %70 = fsub float %69, %50
  %71 = load float, ptr %10, align 4
  %72 = tail call float @llvm.fmuladd.f32(float %36, float %3, float %71)
  %73 = fsub float %72, %55
  %74 = load float, ptr %23, align 4
  %75 = tail call float @llvm.fmuladd.f32(float %38, float %3, float %74)
  %76 = fsub float %75, %60
  %77 = load ptr, ptr %0, align 8
  %78 = getelementptr inbounds i8, ptr %77, i64 48
  %79 = load ptr, ptr %78, align 8
  tail call void %79(ptr noundef nonnull align 8 dereferenceable(8) %0, float noundef %70, float noundef %73, float noundef %76, i32 noundef %4)
  br label %80

80:                                               ; preds = %6, %5, %22
  ret void
}